; Function Attrs: mustprogress nounwind uwtable
define hidden void @_ZN10TypeOrigin8sm_stackEiP13StackMapFrame(ptr dead_on_unwind noalias nocapture writable writeonly sret(%class.TypeOrigin) align 8 %0, i32 noundef %1, ptr noundef %2) local_unnamed_addr #1 align 2 {
  %4 = tail call noundef ptr @_Z23resource_allocate_bytesmN17AllocFailStrategy13AllocFailEnumE(i64 noundef 48, i32 noundef 0) #20
  tail call void @_ZN13StackMapFrameC2ERKS_(ptr noundef nonnull align 8 dereferenceable(48) %4, ptr noundef nonnull align 8 dereferenceable(48) %2)
  %5 = getelementptr inbounds i8, ptr %2, i64 32
  %6 = load ptr, ptr %5, align 8
  %7 = sext i32 %1 to i64
  %8 = getelementptr inbounds %class.VerificationType, ptr %6, i64 %7
  %.sroa.0.0.copyload.i = load ptr, ptr %8, align 8
  store i32 3, ptr %0, align 8
  %9 = getelementptr inbounds i8, ptr %0, i64 4
  store i32 %1, ptr %9, align 4
  %10 = getelementptr inbounds i8, ptr %0, i64 8
  store ptr %4, ptr %10, align 8
  %11 = getelementptr inbounds i8, ptr %0, i64 16
  store ptr %.sroa.0.0.copyload.i, ptr %11, align 8
  ret void
}